target datalayout = "e-m:e-p270:32:32-p271:32:32-p272:64:64-i64:64-i128:128-f80:128-n8:16:32:64-S128"
target triple = "x86_64-pc-linux-gnu"

; Function Attrs: nounwind uwtable
define dso_local ptr @lwDrawSchotter(i32 noundef %0, i32 noundef %1, i32 noundef %2) #0 {
  %4 = alloca i32, align 4
  %5 = alloca i32, align 4
  %6 = alloca i32, align 4
  %7 = alloca i32, align 4
  %8 = alloca i32, align 4
  %9 = alloca float, align 4
  %10 = alloca i32, align 4
  %11 = alloca ptr, align 8
  %12 = alloca i32, align 4
  %13 = alloca i32, align 4
  %14 = alloca i32, align 4
  %15 = alloca i32, align 4
  %16 = alloca i32, align 4
  %17 = alloca float, align 4
  %18 = alloca float, align 4
  %19 = alloca float, align 4
  %20 = alloca float, align 4
  store i32 %0, ptr %4, align 4, !tbaa !5
  store i32 %1, ptr %5, align 4, !tbaa !5
  store i32 %2, ptr %6, align 4, !tbaa !5
  call void @llvm.lifetime.start.p0(i64 4, ptr %7) #6
  %21 = load i32, ptr %4, align 4, !tbaa !5
  %22 = mul nsw i32 %21, 2
  store i32 %22, ptr %7, align 4, !tbaa !5
  call void @llvm.lifetime.start.p0(i64 4, ptr %8) #6
  %23 = load i32, ptr %7, align 4, !tbaa !5
  %24 = icmp sgt i32 %23, 4
  %25 = select i1 %24, i32 2, i32 0
  store i32 %25, ptr %8, align 4, !tbaa !5
  call void @llvm.lifetime.start.p0(i64 4, ptr %9) #6
  %26 = load i32, ptr %7, align 4, !tbaa !5
  %27 = load i32, ptr %8, align 4, !tbaa !5
  %28 = mul nsw i32 %27, 2
  %29 = sub nsw i32 %26, %28
  %30 = sitofp i32 %29 to float
  %31 = load i32, ptr %5, align 4, !tbaa !5
  %32 = sitofp i32 %31 to float
  %33 = fdiv float %30, %32
  store float %33, ptr %9, align 4, !tbaa !13
  call void @llvm.lifetime.start.p0(i64 4, ptr %10) #6
  %34 = load float, ptr %9, align 4, !tbaa !13
  %35 = load i32, ptr %6, align 4, !tbaa !5
  %36 = sitofp i32 %35 to float
  %37 = load i32, ptr %8, align 4, !tbaa !5
  %38 = mul nsw i32 %37, 2
  %39 = sitofp i32 %38 to float
  %40 = call float @llvm.fmuladd.f32(float %34, float %36, float %39)
  %41 = fptosi float %40 to i32
  store i32 %41, ptr %10, align 4, !tbaa !5
  call void @llvm.lifetime.start.p0(i64 8, ptr %11) #6
  %42 = load i32, ptr %7, align 4, !tbaa !5
  %43 = load i32, ptr %10, align 4, !tbaa !5
  %44 = call ptr @lwCreateCanvas(i32 noundef %42, i32 noundef %43, i32 noundef 0)
  store ptr %44, ptr %11, align 8, !tbaa !15
  call void @llvm.lifetime.start.p0(i64 4, ptr %12) #6
  store i32 0, ptr %12, align 4, !tbaa !5
  br label %45

45:                                               ; preds = %155, %3
  %46 = load i32, ptr %12, align 4, !tbaa !5
  %47 = load i32, ptr %6, align 4, !tbaa !5
  %48 = icmp slt i32 %46, %47
  br i1 %48, label %50, label %49

49:                                               ; preds = %45
  store i32 2, ptr %13, align 4
  call void @llvm.lifetime.end.p0(i64 4, ptr %12) #6
  br label %158

50:                                               ; preds = %45
  call void @llvm.lifetime.start.p0(i64 4, ptr %14) #6
  store i32 0, ptr %14, align 4, !tbaa !5
  br label %51

51:                                               ; preds = %151, %50
  %52 = load i32, ptr %14, align 4, !tbaa !5
  %53 = load i32, ptr %5, align 4, !tbaa !5
  %54 = icmp slt i32 %52, %53
  br i1 %54, label %56, label %55

55:                                               ; preds = %51
  store i32 5, ptr %13, align 4
  call void @llvm.lifetime.end.p0(i64 4, ptr %14) #6
  br label %154

56:                                               ; preds = %51
  call void @llvm.lifetime.start.p0(i64 4, ptr %15) #6
  %57 = load i32, ptr %14, align 4, !tbaa !5
  %58 = sitofp i32 %57 to float
  %59 = load float, ptr %9, align 4, !tbaa !13
  %60 = load float, ptr %9, align 4, !tbaa !13
  %61 = fdiv float %60, 2.000000e+00
  %62 = call float @llvm.fmuladd.f32(float %58, float %59, float %61)
  %63 = load i32, ptr %8, align 4, !tbaa !5
  %64 = sitofp i32 %63 to float
  %65 = fadd float %62, %64
  %66 = fptosi float %65 to i32
  store i32 %66, ptr %15, align 4, !tbaa !5
  call void @llvm.lifetime.start.p0(i64 4, ptr %16) #6
  %67 = load i32, ptr %12, align 4, !tbaa !5
  %68 = sitofp i32 %67 to float
  %69 = load float, ptr %9, align 4, !tbaa !13
  %70 = load float, ptr %9, align 4, !tbaa !13
  %71 = fdiv float %70, 2.000000e+00
  %72 = call float @llvm.fmuladd.f32(float %68, float %69, float %71)
  %73 = load i32, ptr %8, align 4, !tbaa !5
  %74 = sitofp i32 %73 to float
  %75 = fadd float %72, %74
  %76 = fptosi float %75 to i32
  store i32 %76, ptr %16, align 4, !tbaa !5
  call void @llvm.lifetime.start.p0(i64 4, ptr %17) #6
  store float 0.000000e+00, ptr %17, align 4, !tbaa !13
  %77 = load i32, ptr %12, align 4, !tbaa !5
  %78 = icmp sgt i32 %77, 1
  br i1 %78, label %79, label %145

79:                                               ; preds = %56
  call void @llvm.lifetime.start.p0(i64 4, ptr %18) #6
  %80 = call i32 @rand() #6
  %81 = sitofp i32 %80 to float
  %82 = fdiv float %81, 0x41E0000000000000
  %83 = load i32, ptr %6, align 4, !tbaa !5
  %84 = sitofp i32 %83 to float
  %85 = fdiv float %82, %84
  %86 = load i32, ptr %12, align 4, !tbaa !5
  %87 = sitofp i32 %86 to float
  %88 = fmul float %85, %87
  store float %88, ptr %18, align 4, !tbaa !13
  call void @llvm.lifetime.start.p0(i64 4, ptr %19) #6
  %89 = call i32 @rand() #6
  %90 = sitofp i32 %89 to float
  %91 = fdiv float %90, 0x41E0000000000000
  %92 = load i32, ptr %6, align 4, !tbaa !5
  %93 = sitofp i32 %92 to float
  %94 = fdiv float %91, %93
  %95 = load i32, ptr %12, align 4, !tbaa !5
  %96 = sitofp i32 %95 to float
  %97 = fmul float %94, %96
  store float %97, ptr %19, align 4, !tbaa !13
  call void @llvm.lifetime.start.p0(i64 4, ptr %20) #6
  %98 = call i32 @rand() #6
  %99 = sitofp i32 %98 to float
  %100 = fdiv float %99, 0x41E0000000000000
  %101 = load i32, ptr %6, align 4, !tbaa !5
  %102 = sitofp i32 %101 to float
  %103 = fdiv float %100, %102
  %104 = load i32, ptr %12, align 4, !tbaa !5
  %105 = sitofp i32 %104 to float
  %106 = fmul float %103, %105
  store float %106, ptr %20, align 4, !tbaa !13
  %107 = call i32 @rand() #6
  %108 = srem i32 %107, 2
  %109 = icmp ne i32 %108, 0
  br i1 %109, label %110, label %113

110:                                              ; preds = %79
  %111 = load float, ptr %18, align 4, !tbaa !13
  %112 = fneg float %111
  store float %112, ptr %18, align 4, !tbaa !13
  br label %113

113:                                              ; preds = %110, %79
  %114 = call i32 @rand() #6
  %115 = srem i32 %114, 2
  %116 = icmp ne i32 %115, 0
  br i1 %116, label %117, label %120

117:                                              ; preds = %113
  %118 = load float, ptr %19, align 4, !tbaa !13
  %119 = fneg float %118
  store float %119, ptr %19, align 4, !tbaa !13
  br label %120

120:                                              ; preds = %117, %113
  %121 = call i32 @rand() #6
  %122 = srem i32 %121, 2
  %123 = icmp ne i32 %122, 0
  br i1 %123, label %124, label %127

124:                                              ; preds = %120
  %125 = load float, ptr %20, align 4, !tbaa !13
  %126 = fneg float %125
  store float %126, ptr %20, align 4, !tbaa !13
  br label %127

127:                                              ; preds = %124, %120
  %128 = load float, ptr %18, align 4, !tbaa !13
  store float %128, ptr %17, align 4, !tbaa !13
  %129 = load float, ptr %19, align 4, !tbaa !13
  %130 = load float, ptr %9, align 4, !tbaa !13
  %131 = fmul float %129, %130
  %132 = fdiv float %131, 3.000000e+00
  %133 = load i32, ptr %15, align 4, !tbaa !5
  %134 = sitofp i32 %133 to float
  %135 = fadd float %134, %132
  %136 = fptosi float %135 to i32
  store i32 %136, ptr %15, align 4, !tbaa !5
  %137 = load float, ptr %20, align 4, !tbaa !13
  %138 = load float, ptr %9, align 4, !tbaa !13
  %139 = fmul float %137, %138
  %140 = fdiv float %139, 3.000000e+00
  %141 = load i32, ptr %16, align 4, !tbaa !5
  %142 = sitofp i32 %141 to float
  %143 = fadd float %142, %140
  %144 = fptosi float %143 to i32
  store i32 %144, ptr %16, align 4, !tbaa !5
  call void @llvm.lifetime.end.p0(i64 4, ptr %20) #6
  call void @llvm.lifetime.end.p0(i64 4, ptr %19) #6
  call void @llvm.lifetime.end.p0(i64 4, ptr %18) #6
  br label %145

145:                                              ; preds = %127, %56
  %146 = load ptr, ptr %11, align 8, !tbaa !15
  %147 = load i32, ptr %15, align 4, !tbaa !5
  %148 = load i32, ptr %16, align 4, !tbaa !5
  %149 = load float, ptr %9, align 4, !tbaa !13
  %150 = load float, ptr %17, align 4, !tbaa !13
  call void @lwDrawSquare(ptr noundef %146, i32 noundef %147, i32 noundef %148, float noundef %149, float noundef %150, i32 noundef 1)
  call void @llvm.lifetime.end.p0(i64 4, ptr %17) #6
  call void @llvm.lifetime.end.p0(i64 4, ptr %16) #6
  call void @llvm.lifetime.end.p0(i64 4, ptr %15) #6
  br label %151

151:                                              ; preds = %145
  %152 = load i32, ptr %14, align 4, !tbaa !5
  %153 = add nsw i32 %152, 1
  store i32 %153, ptr %14, align 4, !tbaa !5
  br label %51, !llvm.loop !17

154:                                              ; preds = %55
  br label %155

155:                                              ; preds = %154
  %156 = load i32, ptr %12, align 4, !tbaa !5
  %157 = add nsw i32 %156, 1
  store i32 %157, ptr %12, align 4, !tbaa !5
  br label %45, !llvm.loop !19

158:                                              ; preds = %49
  %159 = load ptr, ptr %11, align 8, !tbaa !15
  store i32 1, ptr %13, align 4
  call void @llvm.lifetime.end.p0(i64 8, ptr %11) #6
  call void @llvm.lifetime.end.p0(i64 4, ptr %10) #6
  call void @llvm.lifetime.end.p0(i64 4, ptr %9) #6
  call void @llvm.lifetime.end.p0(i64 4, ptr %8) #6
  call void @llvm.lifetime.end.p0(i64 4, ptr %7) #6
  ret ptr %159
}