; Function Attrs: nounwind uwtable
define dso_local ptr @lwDrawSchotter(i32 noundef %0, i32 noundef %1, i32 noundef %2) local_unnamed_addr #2 {
  %4 = shl nsw i32 %0, 1
  %5 = icmp sgt i32 %0, 2
  %6 = select i1 %5, i32 2, i32 0
  %7 = shl nuw nsw i32 %6, 1
  %8 = sub nsw i32 %4, %7
  %9 = sitofp i32 %8 to float
  %10 = sitofp i32 %1 to float
  %11 = fdiv float %9, %10
  %12 = sitofp i32 %2 to float
  %13 = uitofp nneg i32 %7 to float
  %14 = tail call float @llvm.fmuladd.f32(float %11, float %12, float %13)
  %15 = fptosi float %14 to i32
  %16 = tail call ptr @lwCreateCanvas(i32 noundef %4, i32 noundef %15, i32 noundef 0) #6
  %17 = icmp sgt i32 %2, 0
  br i1 %17, label %.preheader.lr.ph, label %._crit_edge57

.preheader.lr.ph:                                 ; preds = %3
  %18 = icmp sgt i32 %1, 0
  %19 = fmul float %11, 5.000000e-01
  %20 = uitofp nneg i32 %6 to float
  br i1 %18, label %.preheader.us, label %._crit_edge57

.preheader.us:                                    ; preds = %.preheader.lr.ph, %._crit_edge.us
  %.05256.us = phi i32 [ %32, %._crit_edge.us ], [ 0, %.preheader.lr.ph ]
  %21 = uitofp nneg i32 %.05256.us to float
  %22 = tail call float @llvm.fmuladd.f32(float %21, float %11, float %19)
  %23 = fadd float %22, %20
  %24 = fptosi float %23 to i32
  %25 = icmp samesign ugt i32 %.05256.us, 1
  %26 = sitofp i32 %24 to float
  br i1 %25, label %.lr.ph.split.us.us, label %.lr.ph.split.us60

.lr.ph.split.us60:                                ; preds = %.preheader.us, %.lr.ph.split.us60
  %.05155.us58 = phi i32 [ %31, %.lr.ph.split.us60 ], [ 0, %.preheader.us ]
  %27 = uitofp nneg i32 %.05155.us58 to float
  %28 = tail call float @llvm.fmuladd.f32(float %27, float %11, float %19)
  %29 = fadd float %28, %20
  %30 = fptosi float %29 to i32
  tail call void @lwDrawSquare(ptr noundef %16, i32 noundef %30, i32 noundef %24, float noundef %11, float noundef 0.000000e+00, i32 noundef 1) #6
  %31 = add nuw nsw i32 %.05155.us58, 1
  %exitcond.not = icmp eq i32 %31, %1
  br i1 %exitcond.not, label %._crit_edge.us, label %.lr.ph.split.us60, !llvm.loop !8

._crit_edge.us:                                   ; preds = %.lr.ph.split.us60, %.lr.ph.split.us.us
  %32 = add nuw nsw i32 %.05256.us, 1
  %exitcond64.not = icmp eq i32 %32, %2
  br i1 %exitcond64.not, label %._crit_edge57, label %.preheader.us, !llvm.loop !10

.lr.ph.split.us.us:                               ; preds = %.preheader.us, %.lr.ph.split.us.us
  %.05155.us.us = phi i32 [ %70, %.lr.ph.split.us.us ], [ 0, %.preheader.us ]
  %33 = uitofp nneg i32 %.05155.us.us to float
  %34 = tail call float @llvm.fmuladd.f32(float %33, float %11, float %19)
  %35 = fadd float %34, %20
  %36 = fptosi float %35 to i32
  %37 = tail call i32 @rand() #6
  %38 = sitofp i32 %37 to float
  %39 = fmul float %38, 0x3E00000000000000
  %40 = fdiv float %39, %12
  %41 = fmul float %40, %21
  %42 = tail call i32 @rand() #6
  %43 = sitofp i32 %42 to float
  %44 = fmul float %43, 0x3E00000000000000
  %45 = fdiv float %44, %12
  %46 = fmul float %45, %21
  %47 = tail call i32 @rand() #6
  %48 = sitofp i32 %47 to float
  %49 = fmul float %48, 0x3E00000000000000
  %50 = fdiv float %49, %12
  %51 = fmul float %50, %21
  %52 = tail call i32 @rand() #6
  %53 = and i32 %52, 1
  %.not.us.us = icmp eq i32 %53, 0
  %54 = fneg float %41
  %.047.us.us = select i1 %.not.us.us, float %41, float %54
  %55 = tail call i32 @rand() #6
  %56 = and i32 %55, 1
  %.not53.us.us = icmp eq i32 %56, 0
  %57 = fneg float %46
  %.046.us.us = select i1 %.not53.us.us, float %46, float %57
  %58 = tail call i32 @rand() #6
  %59 = and i32 %58, 1
  %.not54.us.us = icmp eq i32 %59, 0
  %60 = fneg float %51
  %.0.us.us = select i1 %.not54.us.us, float %51, float %60
  %61 = fmul float %11, %.046.us.us
  %62 = fdiv float %61, 3.000000e+00
  %63 = sitofp i32 %36 to float
  %64 = fadd float %62, %63
  %65 = fptosi float %64 to i32
  %66 = fmul float %11, %.0.us.us
  %67 = fdiv float %66, 3.000000e+00
  %68 = fadd float %67, %26
  %69 = fptosi float %68 to i32
  tail call void @lwDrawSquare(ptr noundef %16, i32 noundef %65, i32 noundef %69, float noundef %11, float noundef %.047.us.us, i32 noundef 1) #6
  %70 = add nuw nsw i32 %.05155.us.us, 1
  %exitcond63.not = icmp eq i32 %70, %1
  br i1 %exitcond63.not, label %._crit_edge.us, label %.lr.ph.split.us.us, !llvm.loop !8

._crit_edge57:                                    ; preds = %._crit_edge.us, %.preheader.lr.ph, %3
  ret ptr %16
}